(dp1
S'log_filename'
p2
(dp3
S'sortable'
p4
I4
sS'sql'
p5
S'VARCHAR(512)'
p6
sS'length'
p7
I512
sS'notnull'
p8
I00
sS'unique'
p9
I00
sS'type'
p10
S'string'
p11
ssS'log_file'
p12
(dp13
g4
I5
sg5
S'VARCHAR(512)'
p14
sg7
I512
sg8
I00
sg9
I00
sg10
S'upload'
p15
ssS'id'
p16
(dp17
g4
I1
sg5
S'SERIAL PRIMARY KEY'
p18
sg7
I512
sg8
I00
sg9
I00
sg10
S'id'
p19
ssS'device_id'
p20
(dp21
g4
I3
sg5
S'VARCHAR(512)'
p22
sg7
I512
sg8
I00
sg9
I00
sg10
g11
ss.